target datalayout = "e-m:e-p270:32:32-p271:32:32-p272:64:64-i64:64-i128:128-f80:128-n8:16:32:64-S128"
target triple = "x86_64-pc-linux-gnu"

%"class.std::__cxx11::basic_string" = type { %"struct.std::__cxx11::basic_string<char>::_Alloc_hider", i64, %union.anon }
%"struct.std::__cxx11::basic_string<char>::_Alloc_hider" = type { ptr }
%union.anon = type { i64, [8 x i8] }

@_ZN5Error8r_error_E = external global i32, align 4
@_ZN8ConstantC1EPK4TypeRKNSt7__cxx1112basic_stringIcSt11char_traitsIcESaIcEEE = dso_local unnamed_addr alias void (ptr, ptr, ptr), ptr @_ZN8ConstantC2EPK4TypeRKNSt7__cxx1112basic_stringIcSt11char_traitsIcESaIcEEE

; Function Attrs: mustprogress nounwind uwtable
define linkonce_odr dso_local noundef i32 @_ZN5Error9get_errorEv() #5 comdat align 2 {
  %1 = load i32, ptr @_ZN5Error8r_error_E, align 4
  ret i32 %1
}

; Function Attrs: mustprogress uwtable
define dso_local noundef ptr @_ZN8Constant19make_random_nonzeroEPK4Type(ptr noundef %0) #4 align 2 personality ptr @__gxx_personality_v0 {
  %2 = alloca ptr, align 8
  %3 = alloca ptr, align 8
  %4 = alloca %"class.std::__cxx11::basic_string", align 8
  %5 = alloca ptr, align 8
  %6 = alloca i32, align 4
  %7 = alloca i32, align 4
  %8 = alloca %"class.std::__cxx11::basic_string", align 8
  store ptr %0, ptr %3, align 8
  %9 = load ptr, ptr %3, align 8
  call void @_ZL22GenerateRandomConstantB5cxx11PK4Type(ptr dead_on_unwind writable sret(%"class.std::__cxx11::basic_string") align 8 %4, ptr noundef %9)
  %10 = invoke noundef i32 @_ZN5Error9get_errorEv()
          to label %11 unwind label %14

11:                                               ; preds = %1
  %12 = icmp ne i32 %10, 0
  br i1 %12, label %13, label %18

13:                                               ; preds = %11
  store ptr null, ptr %2, align 8
  store i32 1, ptr %7, align 4
  br label %36

14:                                               ; preds = %27, %23, %19, %1
  %15 = landingpad { ptr, i32 }
          cleanup
  %16 = extractvalue { ptr, i32 } %15, 0
  store ptr %16, ptr %5, align 8
  %17 = extractvalue { ptr, i32 } %15, 1
  store i32 %17, ptr %6, align 4
  br label %38

18:                                               ; preds = %11
  br label %19

19:                                               ; preds = %25, %18
  %20 = invoke noundef i32 @_ZN11StringUtils7str2intERKNSt7__cxx1112basic_stringIcSt11char_traitsIcESaIcEEE(ptr noundef nonnull align 8 dereferenceable(32) %4)
          to label %21 unwind label %14

21:                                               ; preds = %19
  %22 = icmp eq i32 %20, 0
  br i1 %22, label %23, label %27

23:                                               ; preds = %21
  %24 = load ptr, ptr %3, align 8
  invoke void @_ZL22GenerateRandomConstantB5cxx11PK4Type(ptr dead_on_unwind writable sret(%"class.std::__cxx11::basic_string") align 8 %8, ptr noundef %24)
          to label %25 unwind label %14

25:                                               ; preds = %23
  %26 = call noundef nonnull align 8 dereferenceable(32) ptr @_ZNSt7__cxx1112basic_stringIcSt11char_traitsIcESaIcEEaSEOS4_(ptr noundef nonnull align 8 dereferenceable(32) %4, ptr noundef nonnull align 8 dereferenceable(32) %8) #3
  call void @_ZNSt7__cxx1112basic_stringIcSt11char_traitsIcESaIcEED1Ev(ptr noundef nonnull align 8 dereferenceable(32) %8) #3
  br label %19, !llvm.loop !7

27:                                               ; preds = %21
  %28 = invoke noalias noundef nonnull ptr @_Znwm(i64 noundef 64) #12
          to label %29 unwind label %14

29:                                               ; preds = %27
  %30 = load ptr, ptr %3, align 8
  invoke void @_ZN8ConstantC1EPK4TypeRKNSt7__cxx1112basic_stringIcSt11char_traitsIcESaIcEEE(ptr noundef nonnull align 8 dereferenceable(64) %28, ptr noundef %30, ptr noundef nonnull align 8 dereferenceable(32) %4)
          to label %31 unwind label %32

31:                                               ; preds = %29
  store ptr %28, ptr %2, align 8
  store i32 1, ptr %7, align 4
  br label %36

32:                                               ; preds = %29
  %33 = landingpad { ptr, i32 }
          cleanup
  %34 = extractvalue { ptr, i32 } %33, 0
  store ptr %34, ptr %5, align 8
  %35 = extractvalue { ptr, i32 } %33, 1
  store i32 %35, ptr %6, align 4
  call void @_ZdlPv(ptr noundef %28) #11
  br label %38

36:                                               ; preds = %31, %13
  call void @_ZNSt7__cxx1112basic_stringIcSt11char_traitsIcESaIcEED1Ev(ptr noundef nonnull align 8 dereferenceable(32) %4) #3
  %37 = load ptr, ptr %2, align 8
  ret ptr %37

38:                                               ; preds = %32, %14
  call void @_ZNSt7__cxx1112basic_stringIcSt11char_traitsIcESaIcEED1Ev(ptr noundef nonnull align 8 dereferenceable(32) %4) #3
  br label %39

39:                                               ; preds = %38
  %40 = load ptr, ptr %5, align 8
  %41 = load i32, ptr %6, align 4
  %42 = insertvalue { ptr, i32 } poison, ptr %40, 0
  %43 = insertvalue { ptr, i32 } %42, i32 %41, 1
  resume { ptr, i32 } %43
}