; Function Attrs: mustprogress uwtable
define dso_local noundef ptr @_ZN8Constant19make_random_nonzeroEPK4Type(ptr noundef %0) local_unnamed_addr #3 align 2 personality ptr @__gxx_personality_v0 {
  %2 = alloca %"class.std::__cxx11::basic_string", align 8
  %3 = alloca %"class.std::__cxx11::basic_string", align 8
  call fastcc void @_ZL22GenerateRandomConstantB5cxx11PK4Type(ptr dead_on_unwind noalias nonnull writable align 8 %2, ptr noundef %0)
  %4 = load i32, ptr @_ZN5Error8r_error_E, align 4
  %.not = icmp eq i32 %4, 0
  br i1 %.not, label %.preheader, label %_ZN8ConstantC2EPK4TypeRKNSt7__cxx1112basic_stringIcSt11char_traitsIcESaIcEEE.exit

.loopexit:                                        ; preds = %.preheader, %8
  %lpad.loopexit = landingpad { ptr, i32 }
          cleanup
  br label %20

.loopexit.split-lp:                               ; preds = %11
  %lpad.loopexit.split-lp = landingpad { ptr, i32 }
          cleanup
  br label %20

.preheader:                                       ; preds = %1, %9
  %5 = invoke noundef i32 @_ZN11StringUtils7str2intERKNSt7__cxx1112basic_stringIcSt11char_traitsIcESaIcEEE(ptr noundef nonnull align 8 dereferenceable(32) %2)
          to label %6 unwind label %.loopexit

6:                                                ; preds = %.preheader
  %7 = icmp eq i32 %5, 0
  br i1 %7, label %8, label %11

8:                                                ; preds = %6
  invoke fastcc void @_ZL22GenerateRandomConstantB5cxx11PK4Type(ptr dead_on_unwind noalias nonnull writable align 8 %3, ptr noundef %0)
          to label %9 unwind label %.loopexit

9:                                                ; preds = %8
  %10 = call noundef nonnull align 8 dereferenceable(32) ptr @_ZNSt7__cxx1112basic_stringIcSt11char_traitsIcESaIcEEaSEOS4_(ptr noundef nonnull align 8 dereferenceable(32) %2, ptr noundef nonnull align 8 dereferenceable(32) %3) #16
  call void @_ZNSt7__cxx1112basic_stringIcSt11char_traitsIcESaIcEED1Ev(ptr noundef nonnull align 8 dereferenceable(32) %3) #16
  br label %.preheader, !llvm.loop !17

11:                                               ; preds = %6
  %12 = invoke noalias noundef nonnull dereferenceable(64) ptr @_Znwm(i64 noundef 64) #18
          to label %13 unwind label %.loopexit.split-lp

13:                                               ; preds = %11
  invoke void @_ZN10ExpressionC2E9eTermType(ptr noundef nonnull align 8 dereferenceable(24) %12, i32 noundef 0)
          to label %.noexc unwind label %18

.noexc:                                           ; preds = %13
  store ptr getelementptr inbounds ({ [24 x ptr] }, ptr @_ZTV8Constant, i64 0, i32 0, i64 2), ptr %12, align 8
  %14 = getelementptr inbounds i8, ptr %12, i64 24
  store ptr %0, ptr %14, align 8
  %15 = getelementptr inbounds i8, ptr %12, i64 32
  invoke void @_ZNSt7__cxx1112basic_stringIcSt11char_traitsIcESaIcEEC1ERKS4_(ptr noundef nonnull align 8 dereferenceable(32) %15, ptr noundef nonnull align 8 dereferenceable(32) %2)
          to label %_ZN8ConstantC2EPK4TypeRKNSt7__cxx1112basic_stringIcSt11char_traitsIcESaIcEEE.exit unwind label %16

16:                                               ; preds = %.noexc
  %17 = landingpad { ptr, i32 }
          cleanup
  call void @_ZN10ExpressionD2Ev(ptr noundef nonnull align 8 dereferenceable(24) %12) #16
  br label %.body

18:                                               ; preds = %13
  %19 = landingpad { ptr, i32 }
          cleanup
  br label %.body

.body:                                            ; preds = %16, %18
  %eh.lpad-body = phi { ptr, i32 } [ %19, %18 ], [ %17, %16 ]
  call void @_ZdlPv(ptr noundef nonnull %12) #17
  br label %20

_ZN8ConstantC2EPK4TypeRKNSt7__cxx1112basic_stringIcSt11char_traitsIcESaIcEEE.exit: ; preds = %.noexc, %1
  %.06 = phi ptr [ null, %1 ], [ %12, %.noexc ]
  call void @_ZNSt7__cxx1112basic_stringIcSt11char_traitsIcESaIcEED1Ev(ptr noundef nonnull align 8 dereferenceable(32) %2) #16
  ret ptr %.06

20:                                               ; preds = %.loopexit, %.loopexit.split-lp, %.body
  %.pn = phi { ptr, i32 } [ %eh.lpad-body, %.body ], [ %lpad.loopexit, %.loopexit ], [ %lpad.loopexit.split-lp, %.loopexit.split-lp ]
  call void @_ZNSt7__cxx1112basic_stringIcSt11char_traitsIcESaIcEED1Ev(ptr noundef nonnull align 8 dereferenceable(32) %2) #16
  resume { ptr, i32 } %.pn
}